; Function Attrs: mustprogress uwtable
define hidden void @_ZNK4cvc58internal21StatisticAverageValue9printSafeEi(ptr nocapture noundef nonnull readonly align 8 dereferenceable(32) %this, i32 noundef %fd) unnamed_addr #0 align 2 {
entry:
  %ref.tmp = alloca double, align 8
  %d_sum.i = getelementptr inbounds i8, ptr %this, i64 16
  %0 = load double, ptr %d_sum.i, align 8
  %d_count.i = getelementptr inbounds i8, ptr %this, i64 24
  %1 = load i64, ptr %d_count.i, align 8
  %conv.i = uitofp i64 %1 to double
  %div.i = fdiv double %0, %conv.i
  store double %div.i, ptr %ref.tmp, align 8
  call void @_ZN4cvc58internal10safe_printIdEEviRKT_(i32 noundef %fd, ptr noundef nonnull align 8 dereferenceable(8) %ref.tmp)
  ret void
}